target datalayout = "e-m:e-p270:32:32-p271:32:32-p272:64:64-i64:64-i128:128-f80:128-n8:16:32:64-S128"
target triple = "x86_64-pc-linux-gnu"

%"class.zxing::Counted.base" = type <{ ptr, i32 }>
%"class.zxing::ArrayRef" = type { %"class.zxing::Counted.base", ptr }
%"class.zxing::LuminanceSource" = type { %"class.zxing::Counted.base", i32, i32, [4 x i8] }
%"class.zxing::Ref.0" = type { ptr }
%"class.zxing::Counted" = type <{ ptr, i32, [4 x i8] }>

@_ZTVN5zxing8ArrayRefIcEE = linkonce_odr hidden unnamed_addr constant { [4 x ptr] } { [4 x ptr] [ptr null, ptr @_ZTIN5zxing8ArrayRefIcEE, ptr @_ZN5zxing8ArrayRefIcED2Ev, ptr @_ZN5zxing8ArrayRefIcED0Ev] }, comdat, align 8

; Function Attrs: mustprogress nounwind uwtable
define linkonce_odr hidden noundef ptr @_ZN5zxing7Counted6retainEv(ptr noundef nonnull align 8 dereferenceable(12) %0) #2 comdat align 2 {
  %2 = alloca ptr, align 8
  store ptr %0, ptr %2, align 8
  %3 = load ptr, ptr %2, align 8
  %4 = getelementptr inbounds %"class.zxing::Counted", ptr %3, i32 0, i32 1
  %5 = load i32, ptr %4, align 8
  %6 = add i32 %5, 1
  store i32 %6, ptr %4, align 8
  ret ptr %3
}

; Function Attrs: mustprogress nounwind uwtable
define linkonce_odr hidden void @_ZN5zxing7CountedD2Ev(ptr noundef nonnull align 8 dereferenceable(12) %0) unnamed_addr #2 comdat align 2 {
  %2 = alloca ptr, align 8
  store ptr %0, ptr %2, align 8
  ret void
}

; Function Attrs: mustprogress nounwind uwtable
define linkonce_odr hidden void @_ZN5zxing7Counted7releaseEv(ptr noundef nonnull align 8 dereferenceable(12) %0) #2 comdat align 2 {
  %2 = alloca ptr, align 8
  store ptr %0, ptr %2, align 8
  %3 = load ptr, ptr %2, align 8
  %4 = getelementptr inbounds %"class.zxing::Counted", ptr %3, i32 0, i32 1
  %5 = load i32, ptr %4, align 8
  %6 = add i32 %5, -1
  store i32 %6, ptr %4, align 8
  %7 = getelementptr inbounds %"class.zxing::Counted", ptr %3, i32 0, i32 1
  %8 = load i32, ptr %7, align 8
  %9 = icmp eq i32 %8, 0
  br i1 %9, label %10, label %18

10:                                               ; preds = %1
  %11 = getelementptr inbounds %"class.zxing::Counted", ptr %3, i32 0, i32 1
  store i32 -559026175, ptr %11, align 8
  %12 = icmp eq ptr %3, null
  br i1 %12, label %17, label %13

13:                                               ; preds = %10
  %14 = load ptr, ptr %3, align 8
  %15 = getelementptr inbounds ptr, ptr %14, i64 1
  %16 = load ptr, ptr %15, align 8
  call void %16(ptr noundef nonnull align 8 dereferenceable(12) %3) #10
  br label %17

17:                                               ; preds = %13, %10
  br label %18

18:                                               ; preds = %17, %1
  ret void
}

; Function Attrs: mustprogress nounwind uwtable
define linkonce_odr hidden void @_ZN5zxing3RefINS_10ByteMatrixEE5resetEPS1_(ptr noundef nonnull align 8 dereferenceable(8) %0, ptr noundef %1) #2 comdat align 2 {
  %3 = alloca ptr, align 8
  %4 = alloca ptr, align 8
  store ptr %0, ptr %3, align 8
  store ptr %1, ptr %4, align 8
  %5 = load ptr, ptr %3, align 8
  %6 = load ptr, ptr %4, align 8
  %7 = icmp ne ptr %6, null
  br i1 %7, label %8, label %11

8:                                                ; preds = %2
  %9 = load ptr, ptr %4, align 8
  %10 = call noundef ptr @_ZN5zxing7Counted6retainEv(ptr noundef nonnull align 8 dereferenceable(12) %9)
  br label %11

11:                                               ; preds = %8, %2
  %12 = getelementptr inbounds %"class.zxing::Ref.0", ptr %5, i32 0, i32 0
  %13 = load ptr, ptr %12, align 8
  %14 = icmp ne ptr %13, null
  br i1 %14, label %15, label %18

15:                                               ; preds = %11
  %16 = getelementptr inbounds %"class.zxing::Ref.0", ptr %5, i32 0, i32 0
  %17 = load ptr, ptr %16, align 8
  call void @_ZN5zxing7Counted7releaseEv(ptr noundef nonnull align 8 dereferenceable(12) %17)
  br label %18

18:                                               ; preds = %15, %11
  %19 = load ptr, ptr %4, align 8
  %20 = getelementptr inbounds %"class.zxing::Ref.0", ptr %5, i32 0, i32 0
  store ptr %19, ptr %20, align 8
  ret void
}

; Function Attrs: mustprogress nounwind uwtable
define linkonce_odr hidden void @_ZN5zxing8ArrayRefIcED2Ev(ptr noundef nonnull align 8 dereferenceable(24) %0) unnamed_addr #2 comdat align 2 {
  %2 = alloca ptr, align 8
  store ptr %0, ptr %2, align 8
  %3 = load ptr, ptr %2, align 8
  store ptr getelementptr inbounds inrange(-16, 16) ({ [4 x ptr] }, ptr @_ZTVN5zxing8ArrayRefIcEE, i32 0, i32 0, i32 2), ptr %3, align 8
  %4 = getelementptr inbounds %"class.zxing::ArrayRef", ptr %3, i32 0, i32 1
  %5 = load ptr, ptr %4, align 8
  %6 = icmp ne ptr %5, null
  br i1 %6, label %7, label %10

7:                                                ; preds = %1
  %8 = getelementptr inbounds %"class.zxing::ArrayRef", ptr %3, i32 0, i32 1
  %9 = load ptr, ptr %8, align 8
  call void @_ZN5zxing7Counted7releaseEv(ptr noundef nonnull align 8 dereferenceable(12) %9)
  br label %10

10:                                               ; preds = %7, %1
  %11 = getelementptr inbounds %"class.zxing::ArrayRef", ptr %3, i32 0, i32 1
  store ptr null, ptr %11, align 8
  call void @_ZN5zxing7CountedD2Ev(ptr noundef nonnull align 8 dereferenceable(12) %3) #10
  ret void
}

; Function Attrs: mustprogress uwtable
define linkonce_odr hidden void @_ZN5zxing3RefINS_10ByteMatrixEEC2EPS1_(ptr noundef nonnull align 8 dereferenceable(8) %0, ptr noundef %1) unnamed_addr #0 comdat align 2 {
  %3 = alloca ptr, align 8
  %4 = alloca ptr, align 8
  store ptr %0, ptr %3, align 8
  store ptr %1, ptr %4, align 8
  %5 = load ptr, ptr %3, align 8
  %6 = getelementptr inbounds %"class.zxing::Ref.0", ptr %5, i32 0, i32 0
  store ptr null, ptr %6, align 8
  %7 = load ptr, ptr %4, align 8
  call void @_ZN5zxing3RefINS_10ByteMatrixEE5resetEPS1_(ptr noundef nonnull align 8 dereferenceable(8) %5, ptr noundef %7)
  ret void
}

; Function Attrs: mustprogress nounwind uwtable
define linkonce_odr hidden noundef i32 @_ZNK5zxing15LuminanceSource9getHeightEv(ptr noundef nonnull align 8 dereferenceable(20) %0) #2 comdat align 2 {
  %2 = alloca ptr, align 8
  store ptr %0, ptr %2, align 8
  %3 = load ptr, ptr %2, align 8
  %4 = getelementptr inbounds %"class.zxing::LuminanceSource", ptr %3, i32 0, i32 2
  %5 = load i32, ptr %4, align 8
  ret i32 %5
}

; Function Attrs: mustprogress nounwind uwtable
define linkonce_odr hidden noundef i32 @_ZNK5zxing15LuminanceSource8getWidthEv(ptr noundef nonnull align 8 dereferenceable(20) %0) #2 comdat align 2 {
  %2 = alloca ptr, align 8
  store ptr %0, ptr %2, align 8
  %3 = load ptr, ptr %2, align 8
  %4 = getelementptr inbounds %"class.zxing::LuminanceSource", ptr %3, i32 0, i32 1
  %5 = load i32, ptr %4, align 4
  ret i32 %5
}

; Function Attrs: mustprogress uwtable
define hidden void @_ZNK5zxing24GreyscaleLuminanceSource13getByteMatrixEv(ptr dead_on_unwind noalias writable sret(%"class.zxing::Ref.0") align 8 %0, ptr noundef nonnull align 8 dereferenceable(64) %1) unnamed_addr #0 align 2 personality ptr @__gxx_personality_v0 {
  %3 = alloca ptr, align 8
  %4 = alloca ptr, align 8
  %5 = alloca ptr, align 8
  %6 = alloca i32, align 4
  %7 = alloca %"class.zxing::ArrayRef", align 8
  %8 = alloca i1, align 1
  store ptr %0, ptr %3, align 8
  store ptr %1, ptr %4, align 8
  %9 = load ptr, ptr %4, align 8
  %10 = call noalias noundef nonnull ptr @_Znwm(i64 noundef 40) #11
  store i1 true, ptr %8, align 1
  %11 = invoke noundef i32 @_ZNK5zxing15LuminanceSource8getWidthEv(ptr noundef nonnull align 8 dereferenceable(20) %9)
          to label %12 unwind label %21

12:                                               ; preds = %2
  %13 = invoke noundef i32 @_ZNK5zxing15LuminanceSource9getHeightEv(ptr noundef nonnull align 8 dereferenceable(20) %9)
          to label %14 unwind label %21

14:                                               ; preds = %12
  %15 = load ptr, ptr %9, align 8
  %16 = getelementptr inbounds ptr, ptr %15, i64 3
  %17 = load ptr, ptr %16, align 8
  invoke void %17(ptr dead_on_unwind writable sret(%"class.zxing::ArrayRef") align 8 %7, ptr noundef nonnull align 8 dereferenceable(64) %9)
          to label %18 unwind label %21

18:                                               ; preds = %14
  invoke void @_ZN5zxing10ByteMatrixC1EiiNS_8ArrayRefIcEE(ptr noundef nonnull align 8 dereferenceable(40) %10, i32 noundef %11, i32 noundef %13, ptr noundef %7)
          to label %19 unwind label %25

19:                                               ; preds = %18
  store i1 false, ptr %8, align 1
  invoke void @_ZN5zxing3RefINS_10ByteMatrixEEC2EPS1_(ptr noundef nonnull align 8 dereferenceable(8) %0, ptr noundef %10)
          to label %20 unwind label %25

20:                                               ; preds = %19
  call void @_ZN5zxing8ArrayRefIcED2Ev(ptr noundef nonnull align 8 dereferenceable(24) %7) #10
  ret void

21:                                               ; preds = %14, %12, %2
  %22 = landingpad { ptr, i32 }
          cleanup
  %23 = extractvalue { ptr, i32 } %22, 0
  store ptr %23, ptr %5, align 8
  %24 = extractvalue { ptr, i32 } %22, 1
  store i32 %24, ptr %6, align 4
  br label %29

25:                                               ; preds = %19, %18
  %26 = landingpad { ptr, i32 }
          cleanup
  %27 = extractvalue { ptr, i32 } %26, 0
  store ptr %27, ptr %5, align 8
  %28 = extractvalue { ptr, i32 } %26, 1
  store i32 %28, ptr %6, align 4
  call void @_ZN5zxing8ArrayRefIcED2Ev(ptr noundef nonnull align 8 dereferenceable(24) %7) #10
  br label %29

29:                                               ; preds = %25, %21
  %30 = load i1, ptr %8, align 1
  br i1 %30, label %31, label %32

31:                                               ; preds = %29
  call void @_ZdlPv(ptr noundef %10) #12
  br label %32

32:                                               ; preds = %31, %29
  br label %33

33:                                               ; preds = %32
  %34 = load ptr, ptr %5, align 8
  %35 = load i32, ptr %6, align 4
  %36 = insertvalue { ptr, i32 } poison, ptr %34, 0
  %37 = insertvalue { ptr, i32 } %36, i32 %35, 1
  resume { ptr, i32 } %37
}